target datalayout = "e-m:e-p270:32:32-p271:32:32-p272:64:64-i64:64-i128:128-f80:128-n8:16:32:64-S128"
target triple = "x86_64-pc-linux-gnu"

%struct.cursor = type { ptr, ptr, ptr, ptr, i8, ptr, ptr, ptr, ptr, ptr }
%struct.arguments = type { ptr, ptr, ptr }

@argsinsert = external global ptr, align 8
@argsresult = external global ptr, align 8
@cur = external global ptr, align 8
@current_function = dso_local global ptr null, align 8
@.str.178 = private unnamed_addr constant [27 x i8] c"cursor \22%s\22 does not exist\00", align 1

; Function Attrs: nounwind uwtable
define internal ptr @add_additional_variables(ptr noundef %0, i1 noundef zeroext %1) #0 {
  %3 = alloca ptr, align 8
  %4 = alloca ptr, align 8
  %5 = alloca i8, align 1
  %6 = alloca ptr, align 8
  %7 = alloca ptr, align 8
  %8 = alloca ptr, align 8
  %9 = alloca i32, align 4
  store ptr %0, ptr %4, align 8
  %10 = zext i1 %1 to i8
  store i8 %10, ptr %5, align 1
  call void @llvm.lifetime.start.p0(i64 8, ptr %6) #11
  call void @llvm.lifetime.start.p0(i64 8, ptr %7) #11
  call void @llvm.lifetime.start.p0(i64 8, ptr %8) #11
  %11 = load ptr, ptr %4, align 8
  %12 = getelementptr inbounds i8, ptr %11, i64 0
  %13 = load i8, ptr %12, align 1
  %14 = sext i8 %13 to i32
  %15 = icmp eq i32 %14, 58
  br i1 %15, label %22, label %16

16:                                               ; preds = %2
  %17 = load ptr, ptr %4, align 8
  %18 = getelementptr inbounds i8, ptr %17, i64 0
  %19 = load i8, ptr %18, align 1
  %20 = sext i8 %19 to i32
  %21 = icmp eq i32 %20, 34
  br label %22

22:                                               ; preds = %16, %2
  %23 = phi i1 [ true, %2 ], [ %21, %16 ]
  %24 = select i1 %23, ptr @strcmp, ptr @pg_strcasecmp
  store ptr %24, ptr %8, align 8
  %25 = load ptr, ptr @cur, align 8
  store ptr %25, ptr %6, align 8
  br label %26

26:                                               ; preds = %39, %22
  %27 = load ptr, ptr %6, align 8
  %28 = icmp ne ptr %27, null
  br i1 %28, label %29, label %43

29:                                               ; preds = %26
  %30 = load ptr, ptr %8, align 8
  %31 = load ptr, ptr %6, align 8
  %32 = getelementptr inbounds nuw %struct.cursor, ptr %31, i32 0, i32 0
  %33 = load ptr, ptr %32, align 8
  %34 = load ptr, ptr %4, align 8
  %35 = call i32 %30(ptr noundef %33, ptr noundef %34)
  %36 = icmp eq i32 %35, 0
  br i1 %36, label %37, label %38

37:                                               ; preds = %29
  br label %43

38:                                               ; preds = %29
  br label %39

39:                                               ; preds = %38
  %40 = load ptr, ptr %6, align 8
  %41 = getelementptr inbounds nuw %struct.cursor, ptr %40, i32 0, i32 9
  %42 = load ptr, ptr %41, align 8
  store ptr %42, ptr %6, align 8
  br label %26, !llvm.loop !19

43:                                               ; preds = %37, %26
  %44 = load ptr, ptr %6, align 8
  %45 = icmp eq ptr %44, null
  br i1 %45, label %46, label %48

46:                                               ; preds = %43
  %47 = load ptr, ptr %4, align 8
  call void (i32, i32, ptr, ...) @mmerror(i32 noundef 3, i32 noundef 1, ptr noundef @.str.178, ptr noundef %47)
  store ptr null, ptr %3, align 8
  store i32 1, ptr %9, align 4
  br label %142

48:                                               ; preds = %43
  %49 = load i8, ptr %5, align 1, !range !4, !noundef !5
  %50 = trunc i8 %49 to i1
  br i1 %50, label %51, label %96

51:                                               ; preds = %48
  %52 = load ptr, ptr %6, align 8
  %53 = getelementptr inbounds nuw %struct.cursor, ptr %52, i32 0, i32 1
  %54 = load ptr, ptr %53, align 8
  %55 = icmp eq ptr %54, null
  br i1 %55, label %71, label %56

56:                                               ; preds = %51
  %57 = load ptr, ptr %6, align 8
  %58 = getelementptr inbounds nuw %struct.cursor, ptr %57, i32 0, i32 1
  %59 = load ptr, ptr %58, align 8
  %60 = icmp ne ptr %59, null
  br i1 %60, label %61, label %75

61:                                               ; preds = %56
  %62 = load ptr, ptr @current_function, align 8
  %63 = icmp ne ptr %62, null
  br i1 %63, label %64, label %75

64:                                               ; preds = %61
  %65 = load ptr, ptr %6, align 8
  %66 = getelementptr inbounds nuw %struct.cursor, ptr %65, i32 0, i32 1
  %67 = load ptr, ptr %66, align 8
  %68 = load ptr, ptr @current_function, align 8
  %69 = call i32 @strcmp(ptr noundef %67, ptr noundef %68) #13
  %70 = icmp eq i32 %69, 0
  br i1 %70, label %71, label %75

71:                                               ; preds = %64, %51
  %72 = load ptr, ptr %6, align 8
  %73 = getelementptr inbounds nuw %struct.cursor, ptr %72, i32 0, i32 5
  %74 = load ptr, ptr %73, align 8
  br label %79

75:                                               ; preds = %64, %61, %56
  %76 = load ptr, ptr %6, align 8
  %77 = getelementptr inbounds nuw %struct.cursor, ptr %76, i32 0, i32 6
  %78 = load ptr, ptr %77, align 8
  br label %79

79:                                               ; preds = %75, %71
  %80 = phi ptr [ %74, %71 ], [ %78, %75 ]
  store ptr %80, ptr %7, align 8
  br label %81

81:                                               ; preds = %91, %79
  %82 = load ptr, ptr %7, align 8
  %83 = icmp ne ptr %82, null
  br i1 %83, label %84, label %95

84:                                               ; preds = %81
  %85 = load ptr, ptr %7, align 8
  %86 = getelementptr inbounds nuw %struct.arguments, ptr %85, i32 0, i32 0
  %87 = load ptr, ptr %86, align 8
  %88 = load ptr, ptr %7, align 8
  %89 = getelementptr inbounds nuw %struct.arguments, ptr %88, i32 0, i32 1
  %90 = load ptr, ptr %89, align 8
  call void @add_variable_to_tail(ptr noundef @argsinsert, ptr noundef %87, ptr noundef %90)
  br label %91

91:                                               ; preds = %84
  %92 = load ptr, ptr %7, align 8
  %93 = getelementptr inbounds nuw %struct.arguments, ptr %92, i32 0, i32 2
  %94 = load ptr, ptr %93, align 8
  store ptr %94, ptr %7, align 8
  br label %81, !llvm.loop !20

95:                                               ; preds = %81
  br label %96

96:                                               ; preds = %95, %48
  %97 = load ptr, ptr %6, align 8
  %98 = getelementptr inbounds nuw %struct.cursor, ptr %97, i32 0, i32 1
  %99 = load ptr, ptr %98, align 8
  %100 = icmp eq ptr %99, null
  br i1 %100, label %116, label %101

101:                                              ; preds = %96
  %102 = load ptr, ptr %6, align 8
  %103 = getelementptr inbounds nuw %struct.cursor, ptr %102, i32 0, i32 1
  %104 = load ptr, ptr %103, align 8
  %105 = icmp ne ptr %104, null
  br i1 %105, label %106, label %120

106:                                              ; preds = %101
  %107 = load ptr, ptr @current_function, align 8
  %108 = icmp ne ptr %107, null
  br i1 %108, label %109, label %120

109:                                              ; preds = %106
  %110 = load ptr, ptr %6, align 8
  %111 = getelementptr inbounds nuw %struct.cursor, ptr %110, i32 0, i32 1
  %112 = load ptr, ptr %111, align 8
  %113 = load ptr, ptr @current_function, align 8
  %114 = call i32 @strcmp(ptr noundef %112, ptr noundef %113) #13
  %115 = icmp eq i32 %114, 0
  br i1 %115, label %116, label %120

116:                                              ; preds = %109, %96
  %117 = load ptr, ptr %6, align 8
  %118 = getelementptr inbounds nuw %struct.cursor, ptr %117, i32 0, i32 7
  %119 = load ptr, ptr %118, align 8
  br label %124

120:                                              ; preds = %109, %106, %101
  %121 = load ptr, ptr %6, align 8
  %122 = getelementptr inbounds nuw %struct.cursor, ptr %121, i32 0, i32 8
  %123 = load ptr, ptr %122, align 8
  br label %124

124:                                              ; preds = %120, %116
  %125 = phi ptr [ %119, %116 ], [ %123, %120 ]
  store ptr %125, ptr %7, align 8
  br label %126

126:                                              ; preds = %136, %124
  %127 = load ptr, ptr %7, align 8
  %128 = icmp ne ptr %127, null
  br i1 %128, label %129, label %140

129:                                              ; preds = %126
  %130 = load ptr, ptr %7, align 8
  %131 = getelementptr inbounds nuw %struct.arguments, ptr %130, i32 0, i32 0
  %132 = load ptr, ptr %131, align 8
  %133 = load ptr, ptr %7, align 8
  %134 = getelementptr inbounds nuw %struct.arguments, ptr %133, i32 0, i32 1
  %135 = load ptr, ptr %134, align 8
  call void @add_variable_to_tail(ptr noundef @argsresult, ptr noundef %132, ptr noundef %135)
  br label %136

136:                                              ; preds = %129
  %137 = load ptr, ptr %7, align 8
  %138 = getelementptr inbounds nuw %struct.arguments, ptr %137, i32 0, i32 2
  %139 = load ptr, ptr %138, align 8
  store ptr %139, ptr %7, align 8
  br label %126, !llvm.loop !21

140:                                              ; preds = %126
  %141 = load ptr, ptr %6, align 8
  store ptr %141, ptr %3, align 8
  store i32 1, ptr %9, align 4
  br label %142

142:                                              ; preds = %140, %46
  call void @llvm.lifetime.end.p0(i64 8, ptr %8) #11
  call void @llvm.lifetime.end.p0(i64 8, ptr %7) #11
  call void @llvm.lifetime.end.p0(i64 8, ptr %6) #11
  %143 = load ptr, ptr %3, align 8
  ret ptr %143
}