; Function Attrs: nounwind uwtable
define internal fastcc noundef ptr @add_additional_variables(ptr noundef %0, i1 noundef zeroext %1) unnamed_addr #0 {
  %3 = load i8, ptr %0, align 1
  %4 = icmp eq i8 %3, 58
  %5 = icmp eq i8 %3, 34
  %6 = or i1 %4, %5
  %7 = select i1 %6, ptr @strcmp, ptr @pg_strcasecmp
  %.03346 = load ptr, ptr @cur, align 8
  %cond47 = icmp eq ptr %.03346, null
  br i1 %cond47, label %._crit_edge, label %.lr.ph

.lr.ph:                                           ; preds = %2, %11
  %.03348 = phi ptr [ %.033, %11 ], [ %.03346, %2 ]
  %8 = load ptr, ptr %.03348, align 8
  %9 = tail call i32 %7(ptr noundef %8, ptr noundef nonnull %0) #15, !callees !10
  %10 = icmp eq i32 %9, 0
  br i1 %10, label %13, label %11

11:                                               ; preds = %.lr.ph
  %12 = getelementptr inbounds nuw i8, ptr %.03348, i64 72
  %.033 = load ptr, ptr %12, align 8
  %cond = icmp eq ptr %.033, null
  br i1 %cond, label %._crit_edge, label %.lr.ph, !llvm.loop !19

._crit_edge:                                      ; preds = %11, %2
  tail call void (i32, i32, ptr, ...) @mmerror(i32 noundef 3, i32 noundef 1, ptr noundef nonnull @.str.178, ptr noundef nonnull %0) #15
  br label %.loopexit

13:                                               ; preds = %.lr.ph
  br i1 %1, label %14, label %.loopexit44

14:                                               ; preds = %13
  %15 = getelementptr inbounds nuw i8, ptr %.03348, i64 8
  %16 = load ptr, ptr %15, align 8
  %17 = icmp eq ptr %16, null
  br i1 %17, label %24, label %18

18:                                               ; preds = %14
  %19 = load ptr, ptr @current_function, align 8
  %.not39 = icmp eq ptr %19, null
  br i1 %.not39, label %23, label %20

20:                                               ; preds = %18
  %21 = tail call i32 @strcmp(ptr noundef nonnull dereferenceable(1) %16, ptr noundef nonnull dereferenceable(1) %19) #17
  %22 = icmp eq i32 %21, 0
  br i1 %22, label %24, label %23

23:                                               ; preds = %20, %18
  br label %24

24:                                               ; preds = %14, %20, %23
  %.sink = phi i64 [ 48, %23 ], [ 40, %20 ], [ 40, %14 ]
  %25 = getelementptr inbounds nuw i8, ptr %.03348, i64 %.sink
  %.03249 = load ptr, ptr %25, align 8
  %.not4050 = icmp eq ptr %.03249, null
  br i1 %.not4050, label %.loopexit44, label %.lr.ph53

.lr.ph53:                                         ; preds = %24, %.lr.ph53
  %.03251 = phi ptr [ %.032, %.lr.ph53 ], [ %.03249, %24 ]
  %26 = load ptr, ptr %.03251, align 8
  %27 = getelementptr inbounds nuw i8, ptr %.03251, i64 8
  %28 = load ptr, ptr %27, align 8
  tail call void @add_variable_to_tail(ptr noundef nonnull @argsinsert, ptr noundef %26, ptr noundef %28) #15
  %29 = getelementptr inbounds nuw i8, ptr %.03251, i64 16
  %.032 = load ptr, ptr %29, align 8
  %.not40 = icmp eq ptr %.032, null
  br i1 %.not40, label %.loopexit44, label %.lr.ph53, !llvm.loop !20

.loopexit44:                                      ; preds = %.lr.ph53, %24, %13
  %30 = getelementptr inbounds nuw i8, ptr %.03348, i64 8
  %31 = load ptr, ptr %30, align 8
  %32 = icmp eq ptr %31, null
  br i1 %32, label %39, label %33

33:                                               ; preds = %.loopexit44
  %34 = load ptr, ptr @current_function, align 8
  %.not41 = icmp eq ptr %34, null
  br i1 %.not41, label %38, label %35

35:                                               ; preds = %33
  %36 = tail call i32 @strcmp(ptr noundef nonnull dereferenceable(1) %31, ptr noundef nonnull dereferenceable(1) %34) #17
  %37 = icmp eq i32 %36, 0
  br i1 %37, label %39, label %38

38:                                               ; preds = %35, %33
  br label %39

39:                                               ; preds = %.loopexit44, %35, %38
  %.sink61 = phi i64 [ 64, %38 ], [ 56, %35 ], [ 56, %.loopexit44 ]
  %40 = getelementptr inbounds nuw i8, ptr %.03348, i64 %.sink61
  %.154 = load ptr, ptr %40, align 8
  %.not4355 = icmp eq ptr %.154, null
  br i1 %.not4355, label %.loopexit, label %.lr.ph58

.lr.ph58:                                         ; preds = %39, %.lr.ph58
  %.156 = phi ptr [ %.1, %.lr.ph58 ], [ %.154, %39 ]
  %41 = load ptr, ptr %.156, align 8
  %42 = getelementptr inbounds nuw i8, ptr %.156, i64 8
  %43 = load ptr, ptr %42, align 8
  tail call void @add_variable_to_tail(ptr noundef nonnull @argsresult, ptr noundef %41, ptr noundef %43) #15
  %44 = getelementptr inbounds nuw i8, ptr %.156, i64 16
  %.1 = load ptr, ptr %44, align 8
  %.not43 = icmp eq ptr %.1, null
  br i1 %.not43, label %.loopexit, label %.lr.ph58, !llvm.loop !21

.loopexit:                                        ; preds = %.lr.ph58, %39, %._crit_edge
  %.0 = phi ptr [ null, %._crit_edge ], [ %.03348, %39 ], [ %.03348, %.lr.ph58 ]
  ret ptr %.0
}